target datalayout = "e-m:e-p270:32:32-p271:32:32-p272:64:64-i64:64-i128:128-f80:128-n8:16:32:64-S128"
target triple = "x86_64-pc-linux-gnu"

%class.ZGeneration = type { ptr, i8, ptr, ptr, %class.ZForwardingTable, %class.ZWorkers, [24 x i8], %class.ZMark, %class.ZRelocate, %class.ZRelocationSet, i64, i64, i64, i32, i32, %class.ZStatHeap, %class.ZStatCycle, %class.ZStatWorkers, %class.ZStatMark, %class.ZStatRelocation, ptr }
%class.ZForwardingTable = type { %class.ZGranuleMap }
%class.ZGranuleMap = type { i64, ptr }
%class.ZWorkers = type { %class.WorkerThreads, ptr, %class.ZLock, i32, i8, ptr }
%class.WorkerThreads = type { ptr, ptr, ptr, i32, i32, i32, %class.WorkerTaskDispatcher }
%class.WorkerTaskDispatcher = type { ptr, i32, i32, %class.Semaphore, %class.Semaphore }
%class.Semaphore = type { %class.PosixSemaphore }
%class.PosixSemaphore = type { %union.sem_t }
%union.sem_t = type { i64, [24 x i8] }
%class.ZLock = type { %class.PlatformMutex }
%class.PlatformMutex = type { %union.pthread_mutex_t }
%union.pthread_mutex_t = type { %struct.__pthread_mutex_s }
%struct.__pthread_mutex_s = type { i32, i32, i32, i32, i32, i16, i16, %struct.__pthread_internal_list }
%struct.__pthread_internal_list = type { ptr, ptr }
%class.ZMark = type <{ ptr, ptr, [48 x i8], %class.ZMarkStackAllocator, %class.ZMarkStripeSet, %class.ZMarkTerminate, i64, i64, i64, i64, i64, i64, i32, [36 x i8] }>
%class.ZMarkStackAllocator = type <{ [64 x i8], %class.ZMarkStackSpace, [56 x i8], %class.ZStackList, i8, [63 x i8] }>
%class.ZMarkStackSpace = type <{ %class.ZLock, i64, i64, i64, i8, [7 x i8] }>
%class.ZStackList = type { i64, ptr, [48 x i8] }
%class.ZMarkStripeSet = type { i64, [56 x i8], [16 x %class.ZMarkStripe] }
%class.ZMarkStripe = type { %class.ZStackList.2, %class.ZStackList.2 }
%class.ZStackList.2 = type { i64, ptr, [48 x i8] }
%class.ZMarkTerminate = type { i32, i32, i32, i8, %class.ZConditionLock }
%class.ZConditionLock = type { %class.PlatformMonitor }
%class.PlatformMonitor = type { %class.PlatformMutex, %union.pthread_cond_t }
%union.pthread_cond_t = type { %struct.__pthread_cond_s }
%struct.__pthread_cond_s = type { %union.__atomic_wide_counter, %union.__atomic_wide_counter, [2 x i32], [2 x i32], i32, i32, [2 x i32] }
%union.__atomic_wide_counter = type { i64 }
%class.ZRelocate = type { ptr, %class.ZRelocateQueue }
%class.ZRelocateQueue = type { %class.ZConditionLock, %class.GrowableArrayCHeap, i32, i32, i8, i8, i32 }
%class.GrowableArrayCHeap = type { %class.GrowableArrayWithAllocator }
%class.GrowableArrayWithAllocator = type { %class.GrowableArrayView }
%class.GrowableArrayView = type { %class.GrowableArrayBase, ptr }
%class.GrowableArrayBase = type { i32, i32 }
%class.ZRelocationSet = type { ptr, %class.ZForwardingAllocator, ptr, i64, %class.ZLock, %class.GrowableArrayCHeap.4, %class.GrowableArrayCHeap.4 }
%class.ZForwardingAllocator = type { ptr, ptr, ptr }
%class.GrowableArrayCHeap.4 = type { %class.GrowableArrayWithAllocator.5 }
%class.GrowableArrayWithAllocator.5 = type { %class.GrowableArrayView.6 }
%class.GrowableArrayView.6 = type { %class.GrowableArrayBase, ptr }
%class.ZStatHeap = type { %class.ZLock, %"struct.ZStatHeap::ZAtGenerationCollectionStart", %"struct.ZStatHeap::ZAtMarkStart", %"struct.ZStatHeap::ZAtMarkEnd", %"struct.ZStatHeap::ZAtRelocateStart", %"struct.ZStatHeap::ZAtRelocateEnd", %class.NumberSeq }
%"struct.ZStatHeap::ZAtGenerationCollectionStart" = type { i64, i64, i64, i64, i64 }
%"struct.ZStatHeap::ZAtMarkStart" = type { i64, i64, i64, i64, i64, i64 }
%"struct.ZStatHeap::ZAtMarkEnd" = type { i64, i64, i64, i64, i64, i64, i64, i64 }
%"struct.ZStatHeap::ZAtRelocateStart" = type { i64, i64, i64, i64, i64, i64, i64, i64, i64, i64, i64 }
%"struct.ZStatHeap::ZAtRelocateEnd" = type { i64, i64, i64, i64, i64, i64, i64, i64, i64, i64, i64, i64, i64, i64, i64, i64, i64 }
%class.NumberSeq = type { %class.AbsSeq, double, double }
%class.AbsSeq = type { ptr, i32, double, double, double, double, double }
%class.ZStatCycle = type { %class.ZLock, i64, %class.TimeInstant, %class.TimeInstant, %class.NumberSeq, %class.NumberSeq, %class.NumberSeq, %class.NumberSeq, double }
%class.TimeInstant = type { %class.CompositeCounterRepresentation }
%class.CompositeCounterRepresentation = type { %class.Representation }
%class.Representation = type { %class.PairRep }
%class.PairRep = type { i64, i64 }
%class.ZStatWorkers = type { %class.ZLock, i32, %class.TimeInstant, %class.TimeInterval, %class.TimeInterval }
%class.TimeInterval = type { %class.CompositeCounterRepresentation }
%class.ZStatMark = type { i64, i64, i64, i64, i64, i64 }
%class.ZStatRelocation = type { %class.ZRelocationSetSelectorStats, i64, i64, i64, i64, i64 }
%class.ZRelocationSetSelectorStats = type { [16 x %class.ZRelocationSetSelectorGroupStats], [16 x %class.ZRelocationSetSelectorGroupStats], [16 x %class.ZRelocationSetSelectorGroupStats], i64 }
%class.ZRelocationSetSelectorGroupStats = type { i64, i64, i64, i64, i64, i64 }

@_ZTV11ZGeneration = linkonce_odr hidden unnamed_addr constant { [3 x ptr] } { [3 x ptr] [ptr null, ptr null, ptr @__cxa_pure_virtual] }, comdat, align 8
@ZAddressOffsetMax = external global i64, align 8
@.str.90 = private unnamed_addr constant [47 x i8] c"src/hotspot/share/memory/allocation.inline.hpp\00", align 1
@.str.91 = private unnamed_addr constant [20 x i8] c"Allocator (reserve)\00", align 1
@.str.92 = private unnamed_addr constant [19 x i8] c"Allocator (commit)\00", align 1
@_ZN6OSInfo26_vm_allocation_granularityE = external global i64, align 8

; Function Attrs: mustprogress nounwind uwtable
define linkonce_odr hidden noundef i64 @_Z10align_downImmTnNSt9enable_ifIXcvbsr3std11is_integralIT_EE5valueEiE4typeELi0EES1_S1_T0_(i64 noundef %0, i64 noundef %1) #1 comdat {
  %3 = alloca i64, align 8
  %4 = alloca i64, align 8
  %5 = alloca i64, align 8
  store i64 %0, ptr %3, align 8
  store i64 %1, ptr %4, align 8
  %6 = load i64, ptr %3, align 8
  %7 = load i64, ptr %4, align 8
  %8 = call noundef i64 @_ZL14alignment_maskImTnNSt9enable_ifIXcvbsr3std11is_integralIT_EE5valueEiE4typeELi0EES1_S1_(i64 noundef %7)
  %9 = xor i64 %8, -1
  %10 = and i64 %6, %9
  store i64 %10, ptr %5, align 8
  %11 = load i64, ptr %5, align 8
  ret i64 %11
}

; Function Attrs: mustprogress nounwind uwtable
define linkonce_odr hidden noundef i64 @_Z12checked_castImmET_T0_(i64 noundef %0) #1 comdat {
  %2 = alloca i64, align 8
  %3 = alloca i64, align 8
  store i64 %0, ptr %2, align 8
  %4 = load i64, ptr %2, align 8
  store i64 %4, ptr %3, align 8
  %5 = load i64, ptr %3, align 8
  ret i64 %5
}

; Function Attrs: mustprogress nounwind uwtable
define internal noundef i64 @_ZL14alignment_maskImTnNSt9enable_ifIXcvbsr3std11is_integralIT_EE5valueEiE4typeELi0EES1_S1_(i64 noundef %0) #1 {
  %2 = alloca i64, align 8
  store i64 %0, ptr %2, align 8
  %3 = load i64, ptr %2, align 8
  %4 = sub i64 %3, 1
  ret i64 %4
}

; Function Attrs: mustprogress nounwind uwtable
define linkonce_odr hidden noundef i64 @_ZN6OSInfo25vm_allocation_granularityEv() #1 comdat align 2 {
  %1 = load i64, ptr @_ZN6OSInfo26_vm_allocation_granularityE, align 8
  ret i64 %1
}

; Function Attrs: mustprogress nounwind uwtable
define linkonce_odr hidden noundef i64 @_Z8align_upImmTnNSt9enable_ifIXcvbsr3std11is_integralIT_EE5valueEiE4typeELi0EES1_S1_T0_(i64 noundef %0, i64 noundef %1) #1 comdat {
  %3 = alloca i64, align 8
  %4 = alloca i64, align 8
  %5 = alloca i64, align 8
  store i64 %0, ptr %3, align 8
  store i64 %1, ptr %4, align 8
  %6 = load i64, ptr %3, align 8
  %7 = load i64, ptr %4, align 8
  %8 = call noundef i64 @_ZL14alignment_maskImTnNSt9enable_ifIXcvbsr3std11is_integralIT_EE5valueEiE4typeELi0EES1_S1_(i64 noundef %7)
  %9 = add i64 %6, %8
  %10 = call noundef i64 @_Z12checked_castImmET_T0_(i64 noundef %9)
  store i64 %10, ptr %5, align 8
  %11 = load i64, ptr %5, align 8
  %12 = load i64, ptr %4, align 8
  %13 = call noundef i64 @_Z10align_downImmTnNSt9enable_ifIXcvbsr3std11is_integralIT_EE5valueEiE4typeELi0EES1_S1_T0_(i64 noundef %11, i64 noundef %12)
  ret i64 %13
}

; Function Attrs: mustprogress nounwind uwtable
define linkonce_odr hidden noundef i64 @_ZN2os25vm_allocation_granularityEv() #1 comdat align 2 {
  %1 = call noundef i64 @_ZN6OSInfo25vm_allocation_granularityEv()
  ret i64 %1
}

; Function Attrs: mustprogress nounwind uwtable
define linkonce_odr hidden noundef i64 @_ZN18MmapArrayAllocatorIP11ZForwardingE8size_forEm(i64 noundef %0) #1 comdat align 2 {
  %2 = alloca i64, align 8
  %3 = alloca i64, align 8
  %4 = alloca i64, align 8
  store i64 %0, ptr %2, align 8
  %5 = load i64, ptr %2, align 8
  %6 = mul i64 %5, 8
  store i64 %6, ptr %3, align 8
  %7 = call noundef i64 @_ZN2os25vm_allocation_granularityEv()
  store i64 %7, ptr %4, align 8
  %8 = load i64, ptr %3, align 8
  %9 = load i64, ptr %4, align 8
  %10 = call noundef i64 @_Z8align_upImmTnNSt9enable_ifIXcvbsr3std11is_integralIT_EE5valueEiE4typeELi0EES1_S1_T0_(i64 noundef %8, i64 noundef %9)
  ret i64 %10
}

; Function Attrs: mustprogress nounwind uwtable
define linkonce_odr hidden noundef ptr @_ZN18MmapArrayAllocatorIP11ZForwardingE8allocateEm8MEMFLAGS(i64 noundef %0, i8 noundef zeroext %1) #1 comdat align 2 {
  %3 = alloca i64, align 8
  %4 = alloca i8, align 1
  %5 = alloca i64, align 8
  %6 = alloca ptr, align 8
  store i64 %0, ptr %3, align 8
  store i8 %1, ptr %4, align 1
  %7 = load i64, ptr %3, align 8
  %8 = call noundef i64 @_ZN18MmapArrayAllocatorIP11ZForwardingE8size_forEm(i64 noundef %7)
  store i64 %8, ptr %5, align 8
  %9 = load i64, ptr %5, align 8
  %10 = load i8, ptr %4, align 1
  %11 = call noundef ptr @_ZN2os14reserve_memoryEmb8MEMFLAGS(i64 noundef %9, i1 noundef zeroext false, i8 noundef zeroext %10)
  store ptr %11, ptr %6, align 8
  %12 = load ptr, ptr %6, align 8
  %13 = icmp eq ptr %12, null
  br i1 %13, label %14, label %18

14:                                               ; preds = %2
  br label %15

15:                                               ; preds = %14
  %16 = load i64, ptr %5, align 8
  call void (ptr, i32, i64, i32, ptr, ...) @_Z23report_vm_out_of_memoryPKcim11VMErrorTypeS0_z(ptr noundef @.str.90, i32 noundef 80, i64 noundef %16, i32 noundef -536870910, ptr noundef @.str.91) #11
  unreachable

17:                                               ; No predecessors!
  br label %18

18:                                               ; preds = %17, %2
  %19 = load ptr, ptr %6, align 8
  %20 = load i64, ptr %5, align 8
  call void @_ZN2os21commit_memory_or_exitEPcmbPKc(ptr noundef %19, i64 noundef %20, i1 noundef zeroext false, ptr noundef @.str.92)
  %21 = load ptr, ptr %6, align 8
  ret ptr %21
}

; Function Attrs: mustprogress nounwind uwtable
define linkonce_odr hidden void @_ZN11ZGranuleMapIP11ZForwardingEC2Em(ptr noundef nonnull align 8 dereferenceable(16) %0, i64 noundef %1) unnamed_addr #1 comdat align 2 {
  %3 = alloca ptr, align 8
  %4 = alloca i64, align 8
  store ptr %0, ptr %3, align 8
  store i64 %1, ptr %4, align 8
  %5 = load ptr, ptr %3, align 8
  %6 = getelementptr inbounds %class.ZGranuleMap, ptr %5, i32 0, i32 0
  %7 = load i64, ptr %4, align 8
  %8 = lshr i64 %7, 21
  store i64 %8, ptr %6, align 8
  %9 = getelementptr inbounds %class.ZGranuleMap, ptr %5, i32 0, i32 1
  %10 = getelementptr inbounds %class.ZGranuleMap, ptr %5, i32 0, i32 0
  %11 = load i64, ptr %10, align 8
  %12 = call noundef ptr @_ZN18MmapArrayAllocatorIP11ZForwardingE8allocateEm8MEMFLAGS(i64 noundef %11, i8 noundef zeroext 5)
  store ptr %12, ptr %9, align 8
  ret void
}

; Function Attrs: mustprogress nounwind uwtable
define linkonce_odr hidden void @_ZN16ZForwardingTableC2Ev(ptr noundef nonnull align 8 dereferenceable(16) %0) unnamed_addr #1 comdat align 2 {
  %2 = alloca ptr, align 8
  store ptr %0, ptr %2, align 8
  %3 = load ptr, ptr %2, align 8
  %4 = getelementptr inbounds %class.ZForwardingTable, ptr %3, i32 0, i32 0
  %5 = load i64, ptr @ZAddressOffsetMax, align 8
  call void @_ZN11ZGranuleMapIP11ZForwardingEC2Em(ptr noundef nonnull align 8 dereferenceable(16) %4, i64 noundef %5)
  ret void
}

; Function Attrs: mustprogress nounwind uwtable
define hidden void @_ZN11ZGenerationC2E13ZGenerationIdP10ZPageTableP14ZPageAllocator(ptr noundef nonnull align 64 dereferenceable(6592) %0, i8 noundef zeroext %1, ptr noundef %2, ptr noundef %3) unnamed_addr #1 align 2 {
  %5 = alloca ptr, align 8
  %6 = alloca i8, align 1
  %7 = alloca ptr, align 8
  %8 = alloca ptr, align 8
  store ptr %0, ptr %5, align 8
  store i8 %1, ptr %6, align 1
  store ptr %2, ptr %7, align 8
  store ptr %3, ptr %8, align 8
  %9 = load ptr, ptr %5, align 8
  store ptr getelementptr inbounds inrange(-16, 8) ({ [3 x ptr] }, ptr @_ZTV11ZGeneration, i32 0, i32 0, i32 2), ptr %9, align 64
  %10 = getelementptr inbounds %class.ZGeneration, ptr %9, i32 0, i32 1
  %11 = load i8, ptr %6, align 1
  store i8 %11, ptr %10, align 8
  %12 = getelementptr inbounds %class.ZGeneration, ptr %9, i32 0, i32 2
  %13 = load ptr, ptr %8, align 8
  store ptr %13, ptr %12, align 16
  %14 = getelementptr inbounds %class.ZGeneration, ptr %9, i32 0, i32 3
  %15 = load ptr, ptr %7, align 8
  store ptr %15, ptr %14, align 8
  %16 = getelementptr inbounds %class.ZGeneration, ptr %9, i32 0, i32 4
  call void @_ZN16ZForwardingTableC2Ev(ptr noundef nonnull align 8 dereferenceable(16) %16)
  %17 = getelementptr inbounds %class.ZGeneration, ptr %9, i32 0, i32 5
  %18 = load i8, ptr %6, align 1
  %19 = getelementptr inbounds %class.ZGeneration, ptr %9, i32 0, i32 17
  call void @_ZN8ZWorkersC1E13ZGenerationIdP12ZStatWorkers(ptr noundef nonnull align 8 dereferenceable(184) %17, i8 noundef zeroext %18, ptr noundef %19)
  %20 = getelementptr inbounds %class.ZGeneration, ptr %9, i32 0, i32 7
  %21 = load ptr, ptr %7, align 8
  call void @_ZN5ZMarkC1EP11ZGenerationP10ZPageTable(ptr noundef nonnull align 64 dereferenceable(2652) %20, ptr noundef %9, ptr noundef %21)
  %22 = getelementptr inbounds %class.ZGeneration, ptr %9, i32 0, i32 8
  call void @_ZN9ZRelocateC1EP11ZGeneration(ptr noundef nonnull align 8 dereferenceable(128) %22, ptr noundef %9)
  %23 = getelementptr inbounds %class.ZGeneration, ptr %9, i32 0, i32 9
  call void @_ZN14ZRelocationSetC1EP11ZGeneration(ptr noundef nonnull align 8 dereferenceable(120) %23, ptr noundef %9)
  %24 = getelementptr inbounds %class.ZGeneration, ptr %9, i32 0, i32 10
  store volatile i64 0, ptr %24, align 8
  %25 = getelementptr inbounds %class.ZGeneration, ptr %9, i32 0, i32 11
  store volatile i64 0, ptr %25, align 64
  %26 = getelementptr inbounds %class.ZGeneration, ptr %9, i32 0, i32 12
  store volatile i64 0, ptr %26, align 8
  %27 = getelementptr inbounds %class.ZGeneration, ptr %9, i32 0, i32 13
  store i32 2, ptr %27, align 16
  %28 = getelementptr inbounds %class.ZGeneration, ptr %9, i32 0, i32 14
  store i32 1, ptr %28, align 4
  %29 = getelementptr inbounds %class.ZGeneration, ptr %9, i32 0, i32 15
  call void @_ZN9ZStatHeapC1Ev(ptr noundef nonnull align 8 dereferenceable(488) %29)
  %30 = getelementptr inbounds %class.ZGeneration, ptr %9, i32 0, i32 16
  call void @_ZN10ZStatCycleC1Ev(ptr noundef nonnull align 8 dereferenceable(376) %30)
  %31 = getelementptr inbounds %class.ZGeneration, ptr %9, i32 0, i32 17
  call void @_ZN12ZStatWorkersC1Ev(ptr noundef nonnull align 8 dereferenceable(96) %31)
  %32 = getelementptr inbounds %class.ZGeneration, ptr %9, i32 0, i32 18
  call void @_ZN9ZStatMarkC1Ev(ptr noundef nonnull align 8 dereferenceable(48) %32)
  %33 = getelementptr inbounds %class.ZGeneration, ptr %9, i32 0, i32 19
  call void @_ZN15ZStatRelocationC1Ev(ptr noundef nonnull align 8 dereferenceable(2352) %33)
  %34 = getelementptr inbounds %class.ZGeneration, ptr %9, i32 0, i32 20
  store ptr null, ptr %34, align 8
  ret void
}