; Function Attrs: mustprogress nounwind uwtable
define hidden void @_ZN11ZGenerationC2E13ZGenerationIdP10ZPageTableP14ZPageAllocator(ptr noundef nonnull align 64 dereferenceable(6592) %0, i8 noundef zeroext %1, ptr noundef %2, ptr noundef %3) unnamed_addr #0 align 2 {
  store ptr getelementptr inbounds inrange(-16, 8) (i8, ptr @_ZTV11ZGeneration, i64 16), ptr %0, align 64
  %5 = getelementptr inbounds i8, ptr %0, i64 8
  store i8 %1, ptr %5, align 8
  %6 = getelementptr inbounds i8, ptr %0, i64 16
  store ptr %3, ptr %6, align 16
  %7 = getelementptr inbounds i8, ptr %0, i64 24
  store ptr %2, ptr %7, align 8
  %8 = getelementptr inbounds i8, ptr %0, i64 32
  %9 = load i64, ptr @ZAddressOffsetMax, align 8
  %10 = lshr i64 %9, 21
  store i64 %10, ptr %8, align 32
  %11 = shl nuw nsw i64 %10, 3
  %12 = load i64, ptr @_ZN6OSInfo26_vm_allocation_granularityE, align 8
  %13 = add nsw i64 %11, -1
  %14 = add i64 %13, %12
  %15 = sub i64 0, %12
  %16 = and i64 %14, %15
  %17 = tail call noundef ptr @_ZN2os14reserve_memoryEmb8MEMFLAGS(i64 noundef %16, i1 noundef zeroext false, i8 noundef zeroext 5) #18
  %18 = icmp eq ptr %17, null
  br i1 %18, label %19, label %_ZN16ZForwardingTableC2Ev.exit

19:                                               ; preds = %4
  tail call void (ptr, i32, i64, i32, ptr, ...) @_Z23report_vm_out_of_memoryPKcim11VMErrorTypeS0_z(ptr noundef nonnull @.str.90, i32 noundef 80, i64 noundef %16, i32 noundef -536870910, ptr noundef nonnull @.str.91) #19
  unreachable

_ZN16ZForwardingTableC2Ev.exit:                   ; preds = %4
  %20 = getelementptr inbounds i8, ptr %0, i64 40
  tail call void @_ZN2os21commit_memory_or_exitEPcmbPKc(ptr noundef nonnull %17, i64 noundef %16, i1 noundef zeroext false, ptr noundef nonnull @.str.92) #18
  store ptr %17, ptr %20, align 8
  %21 = getelementptr inbounds i8, ptr %0, i64 48
  %22 = getelementptr inbounds i8, ptr %0, i64 4088
  tail call void @_ZN8ZWorkersC1E13ZGenerationIdP12ZStatWorkers(ptr noundef nonnull align 8 dereferenceable(184) %21, i8 noundef zeroext %1, ptr noundef nonnull %22) #18
  %23 = getelementptr inbounds i8, ptr %0, i64 256
  tail call void @_ZN5ZMarkC1EP11ZGenerationP10ZPageTable(ptr noundef nonnull align 64 dereferenceable(2652) %23, ptr noundef nonnull %0, ptr noundef %2) #18
  %24 = getelementptr inbounds i8, ptr %0, i64 2944
  tail call void @_ZN9ZRelocateC1EP11ZGeneration(ptr noundef nonnull align 8 dereferenceable(128) %24, ptr noundef nonnull %0) #18
  %25 = getelementptr inbounds i8, ptr %0, i64 3072
  tail call void @_ZN14ZRelocationSetC1EP11ZGeneration(ptr noundef nonnull align 8 dereferenceable(120) %25, ptr noundef nonnull %0) #18
  %26 = getelementptr inbounds i8, ptr %0, i64 3192
  store volatile i64 0, ptr %26, align 8
  %27 = getelementptr inbounds i8, ptr %0, i64 3200
  store volatile i64 0, ptr %27, align 64
  %28 = getelementptr inbounds i8, ptr %0, i64 3208
  store volatile i64 0, ptr %28, align 8
  %29 = getelementptr inbounds i8, ptr %0, i64 3216
  store i32 2, ptr %29, align 16
  %30 = getelementptr inbounds i8, ptr %0, i64 3220
  store i32 1, ptr %30, align 4
  %31 = getelementptr inbounds i8, ptr %0, i64 3224
  tail call void @_ZN9ZStatHeapC1Ev(ptr noundef nonnull align 8 dereferenceable(488) %31) #18
  %32 = getelementptr inbounds i8, ptr %0, i64 3712
  tail call void @_ZN10ZStatCycleC1Ev(ptr noundef nonnull align 8 dereferenceable(376) %32) #18
  tail call void @_ZN12ZStatWorkersC1Ev(ptr noundef nonnull align 8 dereferenceable(96) %22) #18
  %33 = getelementptr inbounds i8, ptr %0, i64 4184
  tail call void @_ZN9ZStatMarkC1Ev(ptr noundef nonnull align 8 dereferenceable(48) %33) #18
  %34 = getelementptr inbounds i8, ptr %0, i64 4232
  tail call void @_ZN15ZStatRelocationC1Ev(ptr noundef nonnull align 8 dereferenceable(2352) %34) #18
  %35 = getelementptr inbounds i8, ptr %0, i64 6584
  store ptr null, ptr %35, align 8
  ret void
}